target datalayout = "e-m:e-p270:32:32-p271:32:32-p272:64:64-i64:64-i128:128-f80:128-n8:16:32:64-S128"
target triple = "x86_64-pc-linux-gnu"

%"class.std::__cxx11::basic_string" = type { %"struct.std::__cxx11::basic_string<char>::_Alloc_hider", i64, %union.anon }
%"struct.std::__cxx11::basic_string<char>::_Alloc_hider" = type { ptr }
%union.anon = type { i64, [8 x i8] }
%"class.flatbuffers::csharp::CSharpGenerator" = type { %"class.flatbuffers::BaseGenerator", %"class.std::unordered_set", ptr }
%"class.flatbuffers::BaseGenerator" = type { ptr, ptr, ptr, ptr, %"class.std::__cxx11::basic_string", %"class.std::__cxx11::basic_string", %"class.std::__cxx11::basic_string" }
%"class.std::unordered_set" = type { %"class.std::_Hashtable" }
%"class.std::_Hashtable" = type { ptr, i64, %"struct.std::__detail::_Hash_node_base", i64, %"struct.std::__detail::_Prime_rehash_policy", ptr }
%"struct.std::__detail::_Hash_node_base" = type { ptr }
%"struct.std::__detail::_Prime_rehash_policy" = type { float, i64 }

; Function Attrs: mustprogress uwtable
define internal noundef zeroext i1 @_ZN11flatbuffersL14GenerateCSharpERKNS_6ParserERKNSt7__cxx1112basic_stringIcSt11char_traitsIcESaIcEEESA_(ptr noundef nonnull align 8 dereferenceable(1920) %0, ptr noundef nonnull align 8 dereferenceable(32) %1, ptr noundef nonnull align 8 dereferenceable(32) %2) #4 personality ptr @__gxx_personality_v0 {
  %4 = alloca ptr, align 8
  %5 = alloca ptr, align 8
  %6 = alloca ptr, align 8
  %7 = alloca %"class.flatbuffers::csharp::CSharpGenerator", align 8
  %8 = alloca ptr, align 8
  %9 = alloca i32, align 4
  store ptr %0, ptr %4, align 8, !tbaa !38
  store ptr %1, ptr %5, align 8, !tbaa !19
  store ptr %2, ptr %6, align 8, !tbaa !19
  call void @llvm.lifetime.start.p0(i64 192, ptr %7) #3
  %10 = load ptr, ptr %4, align 8, !tbaa !38
  %11 = load ptr, ptr %5, align 8, !tbaa !19
  %12 = load ptr, ptr %6, align 8, !tbaa !19
  call void @_ZN11flatbuffers6csharp15CSharpGeneratorC2ERKNS_6ParserERKNSt7__cxx1112basic_stringIcSt11char_traitsIcESaIcEEESC_(ptr noundef nonnull align 8 dereferenceable(192) %7, ptr noundef nonnull align 8 dereferenceable(1920) %10, ptr noundef nonnull align 8 dereferenceable(32) %11, ptr noundef nonnull align 8 dereferenceable(32) %12)
  %13 = invoke noundef zeroext i1 @_ZN11flatbuffers6csharp15CSharpGenerator8generateEv(ptr noundef nonnull align 8 dereferenceable(192) %7)
          to label %14 unwind label %15

14:                                               ; preds = %3
  call void @_ZN11flatbuffers6csharp15CSharpGeneratorD2Ev(ptr noundef nonnull align 8 dereferenceable(192) %7) #3
  call void @llvm.lifetime.end.p0(i64 192, ptr %7) #3
  ret i1 %13

15:                                               ; preds = %3
  %16 = landingpad { ptr, i32 }
          cleanup
  %17 = extractvalue { ptr, i32 } %16, 0
  store ptr %17, ptr %8, align 8
  %18 = extractvalue { ptr, i32 } %16, 1
  store i32 %18, ptr %9, align 4
  call void @_ZN11flatbuffers6csharp15CSharpGeneratorD2Ev(ptr noundef nonnull align 8 dereferenceable(192) %7) #3
  call void @llvm.lifetime.end.p0(i64 192, ptr %7) #3
  br label %19

19:                                               ; preds = %15
  %20 = load ptr, ptr %8, align 8
  %21 = load i32, ptr %9, align 4
  %22 = insertvalue { ptr, i32 } poison, ptr %20, 0
  %23 = insertvalue { ptr, i32 } %22, i32 %21, 1
  resume { ptr, i32 } %23
}

; Function Attrs: mustprogress uwtable
define internal noundef i32 @_ZN11flatbuffers12_GLOBAL__N_119CSharpCodeGenerator12GenerateCodeERKNS_6ParserERKNSt7__cxx1112basic_stringIcSt11char_traitsIcESaIcEEESC_(ptr noundef nonnull align 8 dereferenceable(40) %0, ptr noundef nonnull align 8 dereferenceable(1920) %1, ptr noundef nonnull align 8 dereferenceable(32) %2, ptr noundef nonnull align 8 dereferenceable(32) %3) unnamed_addr #4 align 2 {
  %5 = alloca i32, align 4
  %6 = alloca ptr, align 8
  %7 = alloca ptr, align 8
  %8 = alloca ptr, align 8
  %9 = alloca ptr, align 8
  store ptr %0, ptr %6, align 8, !tbaa !11
  store ptr %1, ptr %7, align 8, !tbaa !38
  store ptr %2, ptr %8, align 8, !tbaa !19
  store ptr %3, ptr %9, align 8, !tbaa !19
  %10 = load ptr, ptr %7, align 8, !tbaa !38
  %11 = load ptr, ptr %8, align 8, !tbaa !19
  %12 = load ptr, ptr %9, align 8, !tbaa !19
  %13 = call noundef zeroext i1 @_ZN11flatbuffersL14GenerateCSharpERKNS_6ParserERKNSt7__cxx1112basic_stringIcSt11char_traitsIcESaIcEEESA_(ptr noundef nonnull align 8 dereferenceable(1920) %10, ptr noundef nonnull align 8 dereferenceable(32) %11, ptr noundef nonnull align 8 dereferenceable(32) %12)
  br i1 %13, label %15, label %14

14:                                               ; preds = %4
  store i32 1, ptr %5, align 4
  br label %16

15:                                               ; preds = %4
  store i32 0, ptr %5, align 4
  br label %16

16:                                               ; preds = %15, %14
  %17 = load i32, ptr %5, align 4
  ret i32 %17
}