; Function Attrs: mustprogress uwtable
define internal noundef range(i32 0, 2) i32 @_ZN11flatbuffers12_GLOBAL__N_119CSharpCodeGenerator12GenerateCodeERKNS_6ParserERKNSt7__cxx1112basic_stringIcSt11char_traitsIcESaIcEEESC_(ptr nonnull readnone align 8 captures(none) %0, ptr noundef nonnull align 8 dereferenceable(1920) %1, ptr noundef nonnull align 8 dereferenceable(32) %2, ptr noundef nonnull align 8 dereferenceable(32) %3) unnamed_addr #3 align 2 personality ptr @__gxx_personality_v0 {
  %5 = alloca %"class.flatbuffers::csharp::CSharpGenerator", align 8
  call void @llvm.lifetime.start.p0(i64 192, ptr nonnull %5) #27
  call void @_ZN11flatbuffers6csharp15CSharpGeneratorC2ERKNS_6ParserERKNSt7__cxx1112basic_stringIcSt11char_traitsIcESaIcEEESC_(ptr noundef nonnull align 8 dereferenceable(192) %5, ptr noundef nonnull align 8 dereferenceable(1920) %1, ptr noundef nonnull align 8 dereferenceable(32) %2, ptr noundef nonnull align 8 dereferenceable(32) %3)
  %6 = invoke noundef zeroext i1 @_ZN11flatbuffers6csharp15CSharpGenerator8generateEv(ptr noundef nonnull align 8 dereferenceable(192) %5)
          to label %_ZN11flatbuffersL14GenerateCSharpERKNS_6ParserERKNSt7__cxx1112basic_stringIcSt11char_traitsIcESaIcEEESA_.exit unwind label %7

7:                                                ; preds = %4
  %8 = landingpad { ptr, i32 }
          cleanup
  call void @_ZN11flatbuffers6csharp15CSharpGeneratorD2Ev(ptr noundef nonnull align 8 dereferenceable(192) %5) #27
  call void @llvm.lifetime.end.p0(i64 192, ptr nonnull %5) #27
  resume { ptr, i32 } %8

_ZN11flatbuffersL14GenerateCSharpERKNS_6ParserERKNSt7__cxx1112basic_stringIcSt11char_traitsIcESaIcEEESA_.exit: ; preds = %4
  call void @_ZN11flatbuffers6csharp15CSharpGeneratorD2Ev(ptr noundef nonnull align 8 dereferenceable(192) %5) #27
  call void @llvm.lifetime.end.p0(i64 192, ptr nonnull %5) #27
  %not. = xor i1 %6, true
  %. = zext i1 %not. to i32
  ret i32 %.
}